target datalayout = "e-m:e-p270:32:32-p271:32:32-p272:64:64-i64:64-i128:128-f80:128-n8:16:32:64-S128"
target triple = "x86_64-unknown-linux-gnu"

%"struct.std::pair" = type { double, double }
%"class.QuantLib::NormalDistribution" = type { double, double, double, double, double }
%"class.QuantLib::CumulativeNormalDistribution" = type <{ double, double, %"class.QuantLib::NormalDistribution", [8 x i8] }>

; Function Attrs: mustprogress uwtable
define noundef double @_ZNK8QuantLib16BSMRNDCalculator3cdfEdd(ptr noundef nonnull align 8 dereferenceable(24) %this, double noundef %x, double noundef %t) unnamed_addr #5 align 2 {
entry:
  %this.addr = alloca ptr, align 8
  %x.addr = alloca double, align 8
  %t.addr = alloca double, align 8
  %p = alloca %"struct.std::pair", align 8
  %ref.tmp = alloca %"class.QuantLib::CumulativeNormalDistribution", align 8
  store ptr %this, ptr %this.addr, align 8, !tbaa !3
  store double %x, ptr %x.addr, align 8, !tbaa !12
  store double %t, ptr %t.addr, align 8, !tbaa !12
  %this1 = load ptr, ptr %this.addr, align 8
  call void @llvm.lifetime.start.p0(i64 16, ptr %p) #16
  %0 = load double, ptr %x.addr, align 8, !tbaa !12
  %1 = load double, ptr %t.addr, align 8, !tbaa !12
  %call = call { double, double } @_ZNK8QuantLib16BSMRNDCalculator18distributionParamsEdd(ptr noundef nonnull align 8 dereferenceable(24) %this1, double noundef %0, double noundef %1)
  %2 = getelementptr inbounds nuw { double, double }, ptr %p, i32 0, i32 0
  %3 = extractvalue { double, double } %call, 0
  store double %3, ptr %2, align 8
  %4 = getelementptr inbounds nuw { double, double }, ptr %p, i32 0, i32 1
  %5 = extractvalue { double, double } %call, 1
  store double %5, ptr %4, align 8
  call void @llvm.lifetime.start.p0(i64 64, ptr %ref.tmp) #16
  %first = getelementptr inbounds nuw %"struct.std::pair", ptr %p, i32 0, i32 0
  %6 = load double, ptr %first, align 8, !tbaa !24
  %second = getelementptr inbounds nuw %"struct.std::pair", ptr %p, i32 0, i32 1
  %7 = load double, ptr %second, align 8, !tbaa !26
  call void @_ZN8QuantLib28CumulativeNormalDistributionC2Edd(ptr noundef nonnull align 8 dereferenceable(57) %ref.tmp, double noundef %6, double noundef %7)
  %8 = load double, ptr %x.addr, align 8, !tbaa !12
  %call2 = call noundef double @_ZNK8QuantLib28CumulativeNormalDistributionclEd(ptr noundef nonnull align 8 dereferenceable(57) %ref.tmp, double noundef %8)
  call void @llvm.lifetime.end.p0(i64 64, ptr %ref.tmp) #16
  call void @llvm.lifetime.end.p0(i64 16, ptr %p) #16
  ret double %call2
}