; Function Attrs: mustprogress uwtable
define noundef double @_ZNK8QuantLib16BSMRNDCalculator3cdfEdd(ptr nocapture noundef nonnull readonly align 8 dereferenceable(24) %this, double noundef %x, double noundef %t) unnamed_addr #3 align 2 {
entry:
  %ref.tmp = alloca %"class.QuantLib::CumulativeNormalDistribution", align 8
  %call = tail call { double, double } @_ZNK8QuantLib16BSMRNDCalculator18distributionParamsEdd(ptr noundef nonnull align 8 dereferenceable(24) %this, double noundef %x, double noundef %t)
  %0 = extractvalue { double, double } %call, 0
  %1 = extractvalue { double, double } %call, 1
  call void @llvm.lifetime.start.p0(i64 64, ptr nonnull %ref.tmp) #19
  call void @_ZN8QuantLib28CumulativeNormalDistributionC2Edd(ptr noundef nonnull align 8 dereferenceable(57) %ref.tmp, double noundef %0, double noundef %1)
  %call2 = call noundef double @_ZNK8QuantLib28CumulativeNormalDistributionclEd(ptr noundef nonnull align 8 dereferenceable(57) %ref.tmp, double noundef %x)
  call void @llvm.lifetime.end.p0(i64 64, ptr nonnull %ref.tmp) #19
  ret double %call2
}